target datalayout = "e-m:e-p270:32:32-p271:32:32-p272:64:64-i64:64-i128:128-f80:128-n8:16:32:64-S128"
target triple = "x86_64-pc-linux-gnu"

%struct.JSValue = type { %union.JSValueUnion, i64 }
%union.JSValueUnion = type { double }
%struct.JSRefCountHeader = type { i32 }

@os_poll_func = internal global ptr null, align 8

; Function Attrs: nounwind uwtable
define internal void @JS_FreeValue(ptr noundef %0, i64 %1, i64 %2) #0 {
  %4 = alloca %struct.JSValue, align 8
  %5 = alloca ptr, align 8
  %6 = alloca ptr, align 8
  %7 = getelementptr inbounds { i64, i64 }, ptr %4, i32 0, i32 0
  store i64 %1, ptr %7, align 8
  %8 = getelementptr inbounds { i64, i64 }, ptr %4, i32 0, i32 1
  store i64 %2, ptr %8, align 8
  store ptr %0, ptr %5, align 8
  %9 = getelementptr inbounds %struct.JSValue, ptr %4, i32 0, i32 1
  %10 = load i64, ptr %9, align 8
  %11 = trunc i64 %10 to i32
  %12 = icmp uge i32 %11, -11
  br i1 %12, label %13, label %28

13:                                               ; preds = %3
  %14 = getelementptr inbounds %struct.JSValue, ptr %4, i32 0, i32 0
  %15 = load ptr, ptr %14, align 8
  store ptr %15, ptr %6, align 8
  %16 = load ptr, ptr %6, align 8
  %17 = getelementptr inbounds %struct.JSRefCountHeader, ptr %16, i32 0, i32 0
  %18 = load i32, ptr %17, align 4
  %19 = add i32 %18, -1
  store i32 %19, ptr %17, align 4
  %20 = icmp sle i32 %19, 0
  br i1 %20, label %21, label %27

21:                                               ; preds = %13
  %22 = load ptr, ptr %5, align 8
  %23 = getelementptr inbounds { i64, i64 }, ptr %4, i32 0, i32 0
  %24 = load i64, ptr %23, align 8
  %25 = getelementptr inbounds { i64, i64 }, ptr %4, i32 0, i32 1
  %26 = load i64, ptr %25, align 8
  call void @__JS_FreeValue(ptr noundef %22, i64 %24, i64 %26)
  br label %27

27:                                               ; preds = %21, %13
  br label %28

28:                                               ; preds = %27, %3
  ret void
}

; Function Attrs: nounwind uwtable
define dso_local void @js_std_dump_error(ptr noundef %0) #0 {
  %2 = alloca ptr, align 8
  %3 = alloca %struct.JSValue, align 8
  %4 = alloca %struct.JSValue, align 8
  store ptr %0, ptr %2, align 8
  %5 = load ptr, ptr %2, align 8
  %6 = call { i64, i64 } @JS_GetException(ptr noundef %5)
  %7 = getelementptr inbounds { i64, i64 }, ptr %4, i32 0, i32 0
  %8 = extractvalue { i64, i64 } %6, 0
  store i64 %8, ptr %7, align 8
  %9 = getelementptr inbounds { i64, i64 }, ptr %4, i32 0, i32 1
  %10 = extractvalue { i64, i64 } %6, 1
  store i64 %10, ptr %9, align 8
  call void @llvm.memcpy.p0.p0.i64(ptr align 8 %3, ptr align 8 %4, i64 16, i1 false)
  %11 = load ptr, ptr %2, align 8
  %12 = getelementptr inbounds { i64, i64 }, ptr %3, i32 0, i32 0
  %13 = load i64, ptr %12, align 8
  %14 = getelementptr inbounds { i64, i64 }, ptr %3, i32 0, i32 1
  %15 = load i64, ptr %14, align 8
  call void @js_std_dump_error1(ptr noundef %11, i64 %13, i64 %15)
  %16 = load ptr, ptr %2, align 8
  %17 = getelementptr inbounds { i64, i64 }, ptr %3, i32 0, i32 0
  %18 = load i64, ptr %17, align 8
  %19 = getelementptr inbounds { i64, i64 }, ptr %3, i32 0, i32 1
  %20 = load i64, ptr %19, align 8
  call void @JS_FreeValue(ptr noundef %16, i64 %18, i64 %20)
  ret void
}

; Function Attrs: nounwind uwtable
define dso_local void @js_std_loop(ptr noundef %0) #0 {
  %2 = alloca ptr, align 8
  %3 = alloca ptr, align 8
  %4 = alloca i32, align 4
  store ptr %0, ptr %2, align 8
  br label %5

5:                                                ; preds = %28, %1
  br label %6

6:                                                ; preds = %18, %5
  %7 = load ptr, ptr %2, align 8
  %8 = call ptr @JS_GetRuntime(ptr noundef %7)
  %9 = call i32 @JS_ExecutePendingJob(ptr noundef %8, ptr noundef %3)
  store i32 %9, ptr %4, align 4
  %10 = load i32, ptr %4, align 4
  %11 = icmp sle i32 %10, 0
  br i1 %11, label %12, label %18

12:                                               ; preds = %6
  %13 = load i32, ptr %4, align 4
  %14 = icmp slt i32 %13, 0
  br i1 %14, label %15, label %17

15:                                               ; preds = %12
  %16 = load ptr, ptr %3, align 8
  call void @js_std_dump_error(ptr noundef %16)
  br label %17

17:                                               ; preds = %15, %12
  br label %19

18:                                               ; preds = %6
  br label %6

19:                                               ; preds = %17
  %20 = load ptr, ptr @os_poll_func, align 8
  %21 = icmp ne ptr %20, null
  br i1 %21, label %22, label %27

22:                                               ; preds = %19
  %23 = load ptr, ptr @os_poll_func, align 8
  %24 = load ptr, ptr %2, align 8
  %25 = call i32 %23(ptr noundef %24)
  %26 = icmp ne i32 %25, 0
  br i1 %26, label %27, label %28

27:                                               ; preds = %22, %19
  br label %29

28:                                               ; preds = %22
  br label %5

29:                                               ; preds = %27
  ret void
}