; Function Attrs: nounwind uwtable
define dso_local void @js_std_loop(ptr noundef %0) local_unnamed_addr #0 {
  %2 = alloca ptr, align 8
  br label %3

3:                                                ; preds = %.backedge, %1
  %4 = call ptr @JS_GetRuntime(ptr noundef %0) #29
  %5 = call i32 @JS_ExecutePendingJob(ptr noundef %4, ptr noundef nonnull %2) #29
  %6 = icmp slt i32 %5, 1
  br i1 %6, label %7, label %.backedge

.backedge:                                        ; preds = %3, %23
  br label %3

7:                                                ; preds = %3
  %8 = icmp slt i32 %5, 0
  br i1 %8, label %9, label %js_std_dump_error.exit

9:                                                ; preds = %7
  %10 = load ptr, ptr %2, align 8
  %11 = call { i64, i64 } @JS_GetException(ptr noundef %10) #29
  %12 = extractvalue { i64, i64 } %11, 0
  %13 = extractvalue { i64, i64 } %11, 1
  call fastcc void @js_std_dump_error1(ptr noundef %10, i64 %12, i64 %13)
  %14 = trunc i64 %13 to i32
  %15 = icmp ugt i32 %14, -12
  br i1 %15, label %16, label %js_std_dump_error.exit

16:                                               ; preds = %9
  %17 = inttoptr i64 %12 to ptr
  %18 = load i32, ptr %17, align 4
  %19 = add i32 %18, -1
  store i32 %19, ptr %17, align 4
  %20 = icmp slt i32 %19, 1
  br i1 %20, label %21, label %js_std_dump_error.exit

21:                                               ; preds = %16
  call void @__JS_FreeValue(ptr noundef %10, i64 %12, i64 %13) #29
  br label %js_std_dump_error.exit

js_std_dump_error.exit:                           ; preds = %21, %16, %9, %7
  %22 = load ptr, ptr @os_poll_func, align 8
  %.not = icmp eq ptr %22, null
  br i1 %.not, label %25, label %23

23:                                               ; preds = %js_std_dump_error.exit
  %24 = call i32 @js_os_poll(ptr noundef %0), !callees !17
  %.not4 = icmp eq i32 %24, 0
  br i1 %.not4, label %.backedge, label %25

25:                                               ; preds = %js_std_dump_error.exit, %23
  ret void
}